target datalayout = "e-m:e-p270:32:32-p271:32:32-p272:64:64-i64:64-i128:128-f80:128-n8:16:32:64-S128"
target triple = "x86_64-pc-linux-gnu"

%"class.cv::Size_" = type { i32, i32 }
%"class.cv::Mat" = type { i32, i32, i32, i32, ptr, ptr, ptr, ptr, ptr, ptr, %"struct.cv::MatSize", %"struct.cv::MatStep" }
%"struct.cv::MatSize" = type { ptr }
%"struct.cv::MatStep" = type { ptr, [2 x i64] }
%"class.cv::cuda::GpuMat" = type { i32, i32, i32, i64, ptr, ptr, ptr, ptr, ptr }
%"class.cv::Point_" = type { i32, i32 }
%"class.cv::_InputArray" = type { i32, ptr, %"class.cv::Size_" }

; Function Attrs: inlinehint mustprogress nounwind uwtable
define linkonce_odr hidden void @_ZN2cv11_InputArray4initEiPKv(ptr noundef nonnull align 8 dereferenceable(24) %0, i32 noundef %1, ptr noundef %2) #4 comdat align 2 {
  %4 = alloca ptr, align 8
  %5 = alloca i32, align 4
  %6 = alloca ptr, align 8
  store ptr %0, ptr %4, align 8, !tbaa !68
  store i32 %1, ptr %5, align 4, !tbaa !8
  store ptr %2, ptr %6, align 8, !tbaa !106
  %7 = load ptr, ptr %4, align 8
  %8 = load i32, ptr %5, align 4, !tbaa !8
  %9 = getelementptr inbounds nuw %"class.cv::_InputArray", ptr %7, i32 0, i32 0
  store i32 %8, ptr %9, align 8, !tbaa !189
  %10 = load ptr, ptr %6, align 8, !tbaa !106
  %11 = getelementptr inbounds nuw %"class.cv::_InputArray", ptr %7, i32 0, i32 1
  store ptr %10, ptr %11, align 8, !tbaa !116
  ret void
}

; Function Attrs: inlinehint mustprogress nounwind uwtable
define linkonce_odr hidden void @_ZN2cv6Point_IiEC2Ev(ptr noundef nonnull align 4 dereferenceable(8) %0) unnamed_addr #4 comdat align 2 {
  %2 = alloca ptr, align 8
  store ptr %0, ptr %2, align 8, !tbaa !26
  %3 = load ptr, ptr %2, align 8
  %4 = getelementptr inbounds nuw %"class.cv::Point_", ptr %3, i32 0, i32 0
  store i32 0, ptr %4, align 4, !tbaa !28
  %5 = getelementptr inbounds nuw %"class.cv::Point_", ptr %3, i32 0, i32 1
  store i32 0, ptr %5, align 4, !tbaa !30
  ret void
}

; Function Attrs: inlinehint mustprogress nounwind uwtable
define linkonce_odr hidden void @_ZN2cv5Size_IiEC2Ev(ptr noundef nonnull align 4 dereferenceable(8) %0) unnamed_addr #4 comdat align 2 {
  %2 = alloca ptr, align 8
  store ptr %0, ptr %2, align 8, !tbaa !3
  %3 = load ptr, ptr %2, align 8
  %4 = getelementptr inbounds nuw %"class.cv::Size_", ptr %3, i32 0, i32 0
  store i32 0, ptr %4, align 4, !tbaa !10
  %5 = getelementptr inbounds nuw %"class.cv::Size_", ptr %3, i32 0, i32 1
  store i32 0, ptr %5, align 4, !tbaa !12
  ret void
}

; Function Attrs: inlinehint mustprogress nounwind uwtable
define linkonce_odr hidden void @_ZN2cv5Size_IiEC2Eii(ptr noundef nonnull align 4 dereferenceable(8) %0, i32 noundef %1, i32 noundef %2) unnamed_addr #4 comdat align 2 {
  %4 = alloca ptr, align 8
  %5 = alloca i32, align 4
  %6 = alloca i32, align 4
  store ptr %0, ptr %4, align 8, !tbaa !3
  store i32 %1, ptr %5, align 4, !tbaa !8
  store i32 %2, ptr %6, align 4, !tbaa !8
  %7 = load ptr, ptr %4, align 8
  %8 = getelementptr inbounds nuw %"class.cv::Size_", ptr %7, i32 0, i32 0
  %9 = load i32, ptr %5, align 4, !tbaa !8
  store i32 %9, ptr %8, align 4, !tbaa !10
  %10 = getelementptr inbounds nuw %"class.cv::Size_", ptr %7, i32 0, i32 1
  %11 = load i32, ptr %6, align 4, !tbaa !8
  store i32 %11, ptr %10, align 4, !tbaa !12
  ret void
}

; Function Attrs: inlinehint mustprogress nounwind uwtable
define linkonce_odr hidden void @_ZN2cv4cuda6GpuMatD2Ev(ptr noundef nonnull align 8 dereferenceable(64) %0) unnamed_addr #4 comdat align 2 personality ptr @__gxx_personality_v0 {
  %2 = alloca ptr, align 8
  store ptr %0, ptr %2, align 8, !tbaa !31
  %3 = load ptr, ptr %2, align 8
  invoke void @_ZN2cv4cuda6GpuMat7releaseEv(ptr noundef nonnull align 8 dereferenceable(64) %3)
          to label %4 unwind label %5

4:                                                ; preds = %1
  ret void

5:                                                ; preds = %1
  %6 = landingpad { ptr, i32 }
          catch ptr null
  %7 = extractvalue { ptr, i32 } %6, 0
  call void @__clang_call_terminate(ptr %7) #20
  unreachable
}

; Function Attrs: inlinehint mustprogress nounwind uwtable
define linkonce_odr hidden void @_ZN2cv11_InputArrayD2Ev(ptr noundef nonnull align 8 dereferenceable(24) %0) unnamed_addr #4 comdat align 2 {
  %2 = alloca ptr, align 8
  store ptr %0, ptr %2, align 8, !tbaa !68
  ret void
}

; Function Attrs: inlinehint mustprogress uwtable
define linkonce_odr hidden void @_ZN2cv11_InputArrayC2ERKNS_3MatE(ptr noundef nonnull align 8 dereferenceable(24) %0, ptr noundef nonnull align 8 dereferenceable(96) %1) unnamed_addr #7 comdat align 2 {
  %3 = alloca ptr, align 8
  %4 = alloca ptr, align 8
  store ptr %0, ptr %3, align 8, !tbaa !68
  store ptr %1, ptr %4, align 8, !tbaa !56
  %5 = load ptr, ptr %3, align 8
  %6 = getelementptr inbounds nuw %"class.cv::_InputArray", ptr %5, i32 0, i32 2
  call void @_ZN2cv5Size_IiEC2Ev(ptr noundef nonnull align 4 dereferenceable(8) %6)
  %7 = load ptr, ptr %4, align 8, !tbaa !56
  call void @_ZN2cv11_InputArray4initEiPKv(ptr noundef nonnull align 8 dereferenceable(24) %5, i32 noundef 16842752, ptr noundef %7)
  ret void
}

; Function Attrs: mustprogress uwtable
define hidden void @_ZN6cvtest9createMatEN2cv5Size_IiEEib(ptr dead_on_unwind noalias writable sret(%"class.cv::cuda::GpuMat") align 8 %0, i64 %1, i32 noundef %2, i1 noundef zeroext %3) #6 {
  %5 = alloca ptr, align 8
  %6 = alloca %"class.cv::Size_", align 4
  %7 = alloca i32, align 4
  %8 = alloca i8, align 1
  %9 = alloca %"class.cv::Size_", align 4
  %10 = alloca %"class.cv::Point_", align 4
  %11 = alloca %"class.cv::Size_", align 4
  store ptr %0, ptr %5, align 8
  store i64 %1, ptr %6, align 4
  store i32 %2, ptr %7, align 4, !tbaa !8
  %12 = zext i1 %3 to i8
  store i8 %12, ptr %8, align 1, !tbaa !22
  call void @llvm.lifetime.start.p0(i64 8, ptr %9) #3
  call void @_ZN2cv5Size_IiEC2Ev(ptr noundef nonnull align 4 dereferenceable(8) %9)
  call void @llvm.lifetime.start.p0(i64 8, ptr %10) #3
  call void @_ZN2cv6Point_IiEC2Ev(ptr noundef nonnull align 4 dereferenceable(8) %10)
  call void @llvm.memcpy.p0.p0.i64(ptr align 4 %11, ptr align 4 %6, i64 8, i1 false), !tbaa.struct !21
  %13 = load i32, ptr %7, align 4, !tbaa !8
  %14 = load i8, ptr %8, align 1, !tbaa !22, !range !24, !noundef !25
  %15 = trunc i8 %14 to i1
  %16 = load i64, ptr %11, align 4
  call void @_ZN6cvtest9createMatEN2cv5Size_IiEEiRS2_RNS0_6Point_IiEEb(ptr dead_on_unwind writable sret(%"class.cv::cuda::GpuMat") align 8 %0, i64 %16, i32 noundef %13, ptr noundef nonnull align 4 dereferenceable(8) %9, ptr noundef nonnull align 4 dereferenceable(8) %10, i1 noundef zeroext %15)
  call void @llvm.lifetime.end.p0(i64 8, ptr %10) #3
  call void @llvm.lifetime.end.p0(i64 8, ptr %9) #3
  ret void
}

; Function Attrs: inlinehint mustprogress nounwind uwtable
define linkonce_odr hidden noundef i32 @_ZNK2cv3Mat4typeEv(ptr noundef nonnull align 8 dereferenceable(96) %0) #4 comdat align 2 {
  %2 = alloca ptr, align 8
  store ptr %0, ptr %2, align 8, !tbaa !56
  %3 = load ptr, ptr %2, align 8
  %4 = getelementptr inbounds nuw %"class.cv::Mat", ptr %3, i32 0, i32 0
  %5 = load i32, ptr %4, align 8, !tbaa !62
  %6 = and i32 %5, 4095
  ret i32 %6
}

; Function Attrs: inlinehint mustprogress uwtable
define linkonce_odr hidden i64 @_ZNK2cv7MatSizeclEv(ptr noundef nonnull align 8 dereferenceable(8) %0) #7 comdat align 2 {
  %2 = alloca %"class.cv::Size_", align 4
  %3 = alloca ptr, align 8
  store ptr %0, ptr %3, align 8, !tbaa !58
  %4 = load ptr, ptr %3, align 8
  %5 = getelementptr inbounds nuw %"struct.cv::MatSize", ptr %4, i32 0, i32 0
  %6 = load ptr, ptr %5, align 8, !tbaa !60
  %7 = getelementptr inbounds i32, ptr %6, i64 1
  %8 = load i32, ptr %7, align 4, !tbaa !8
  %9 = getelementptr inbounds nuw %"struct.cv::MatSize", ptr %4, i32 0, i32 0
  %10 = load ptr, ptr %9, align 8, !tbaa !60
  %11 = getelementptr inbounds i32, ptr %10, i64 0
  %12 = load i32, ptr %11, align 4, !tbaa !8
  call void @_ZN2cv5Size_IiEC2Eii(ptr noundef nonnull align 4 dereferenceable(8) %2, i32 noundef %8, i32 noundef %12)
  %13 = load i64, ptr %2, align 4
  ret i64 %13
}

; Function Attrs: mustprogress uwtable
define hidden void @_ZN6cvtest7loadMatERKN2cv3MatEb(ptr dead_on_unwind noalias writable sret(%"class.cv::cuda::GpuMat") align 8 %0, ptr noundef nonnull align 8 dereferenceable(96) %1, i1 noundef zeroext %2) #6 personality ptr @__gxx_personality_v0 {
  %4 = alloca ptr, align 8
  %5 = alloca ptr, align 8
  %6 = alloca i8, align 1
  %7 = alloca i1, align 1
  %8 = alloca %"class.cv::Size_", align 4
  %9 = alloca %"class.cv::_InputArray", align 8
  %10 = alloca ptr, align 8
  %11 = alloca i32, align 4
  store ptr %0, ptr %4, align 8
  store ptr %1, ptr %5, align 8, !tbaa !56
  %12 = zext i1 %2 to i8
  store i8 %12, ptr %6, align 1, !tbaa !22
  store i1 false, ptr %7, align 1
  %13 = load ptr, ptr %5, align 8, !tbaa !56
  %14 = getelementptr inbounds nuw %"class.cv::Mat", ptr %13, i32 0, i32 10
  %15 = call i64 @_ZNK2cv7MatSizeclEv(ptr noundef nonnull align 8 dereferenceable(8) %14)
  store i64 %15, ptr %8, align 4
  %16 = load ptr, ptr %5, align 8, !tbaa !56
  %17 = call noundef i32 @_ZNK2cv3Mat4typeEv(ptr noundef nonnull align 8 dereferenceable(96) %16)
  %18 = load i8, ptr %6, align 1, !tbaa !22, !range !24, !noundef !25
  %19 = trunc i8 %18 to i1
  %20 = load i64, ptr %8, align 4
  call void @_ZN6cvtest9createMatEN2cv5Size_IiEEib(ptr dead_on_unwind writable sret(%"class.cv::cuda::GpuMat") align 8 %0, i64 %20, i32 noundef %17, i1 noundef zeroext %19)
  call void @llvm.lifetime.start.p0(i64 24, ptr %9) #3
  %21 = load ptr, ptr %5, align 8, !tbaa !56
  invoke void @_ZN2cv11_InputArrayC2ERKNS_3MatE(ptr noundef nonnull align 8 dereferenceable(24) %9, ptr noundef nonnull align 8 dereferenceable(96) %21)
          to label %22 unwind label %25

22:                                               ; preds = %3
  invoke void @_ZN2cv4cuda6GpuMat6uploadERKNS_11_InputArrayE(ptr noundef nonnull align 8 dereferenceable(64) %0, ptr noundef nonnull align 8 dereferenceable(24) %9)
          to label %23 unwind label %29

23:                                               ; preds = %22
  call void @_ZN2cv11_InputArrayD2Ev(ptr noundef nonnull align 8 dereferenceable(24) %9) #3
  call void @llvm.lifetime.end.p0(i64 24, ptr %9) #3
  store i1 true, ptr %7, align 1
  %24 = load i1, ptr %7, align 1
  br i1 %24, label %35, label %34

25:                                               ; preds = %3
  %26 = landingpad { ptr, i32 }
          cleanup
  %27 = extractvalue { ptr, i32 } %26, 0
  store ptr %27, ptr %10, align 8
  %28 = extractvalue { ptr, i32 } %26, 1
  store i32 %28, ptr %11, align 4
  br label %33

29:                                               ; preds = %22
  %30 = landingpad { ptr, i32 }
          cleanup
  %31 = extractvalue { ptr, i32 } %30, 0
  store ptr %31, ptr %10, align 8
  %32 = extractvalue { ptr, i32 } %30, 1
  store i32 %32, ptr %11, align 4
  call void @_ZN2cv11_InputArrayD2Ev(ptr noundef nonnull align 8 dereferenceable(24) %9) #3
  br label %33

33:                                               ; preds = %29, %25
  call void @llvm.lifetime.end.p0(i64 24, ptr %9) #3
  call void @_ZN2cv4cuda6GpuMatD2Ev(ptr noundef nonnull align 8 dereferenceable(64) %0) #3
  br label %36

34:                                               ; preds = %23
  call void @_ZN2cv4cuda6GpuMatD2Ev(ptr noundef nonnull align 8 dereferenceable(64) %0) #3
  br label %35

35:                                               ; preds = %34, %23
  ret void

36:                                               ; preds = %33
  %37 = load ptr, ptr %10, align 8
  %38 = load i32, ptr %11, align 4
  %39 = insertvalue { ptr, i32 } poison, ptr %37, 0
  %40 = insertvalue { ptr, i32 } %39, i32 %38, 1
  resume { ptr, i32 } %40
}