; Function Attrs: mustprogress uwtable
define hidden void @_ZN6cvtest7loadMatERKN2cv3MatEb(ptr dead_on_unwind noalias writable sret(%"class.cv::cuda::GpuMat") align 8 initializes((0, 12), (16, 64)) %0, ptr noundef nonnull align 8 dereferenceable(96) %1, i1 noundef zeroext %2) local_unnamed_addr #4 personality ptr @__gxx_personality_v0 {
  %4 = alloca %"class.cv::Size_", align 4
  %5 = alloca %"class.cv::Point_", align 4
  %6 = alloca %"class.cv::_InputArray", align 8
  %7 = getelementptr inbounds nuw i8, ptr %1, i64 64
  %8 = load ptr, ptr %7, align 8, !tbaa !33
  %9 = getelementptr inbounds nuw i8, ptr %8, i64 4
  %10 = load i32, ptr %9, align 4, !tbaa !28
  %11 = load i32, ptr %8, align 4, !tbaa !28
  %.sroa.2.0.insert.ext.i = zext i32 %11 to i64
  %.sroa.2.0.insert.shift.i = shl nuw i64 %.sroa.2.0.insert.ext.i, 32
  %.sroa.0.0.insert.ext.i = zext i32 %10 to i64
  %.sroa.0.0.insert.insert.i = or disjoint i64 %.sroa.2.0.insert.shift.i, %.sroa.0.0.insert.ext.i
  %12 = load i32, ptr %1, align 8, !tbaa !35
  %13 = and i32 %12, 4095
  call void @llvm.lifetime.start.p0(i64 8, ptr nonnull %4) #27, !noalias !41
  call void @llvm.lifetime.start.p0(i64 8, ptr nonnull %5) #27, !noalias !41
  call void @_ZN6cvtest9createMatEN2cv5Size_IiEEiRS2_RNS0_6Point_IiEEb(ptr dead_on_unwind writable sret(%"class.cv::cuda::GpuMat") align 8 %0, i64 %.sroa.0.0.insert.insert.i, i32 noundef %13, ptr noundef nonnull align 4 dereferenceable(8) %4, ptr noundef nonnull align 4 dereferenceable(8) %5, i1 noundef zeroext %2)
  call void @llvm.lifetime.end.p0(i64 8, ptr nonnull %5) #27, !noalias !41
  call void @llvm.lifetime.end.p0(i64 8, ptr nonnull %4) #27, !noalias !41
  call void @llvm.lifetime.start.p0(i64 24, ptr nonnull %6) #27
  %14 = getelementptr inbounds nuw i8, ptr %6, i64 16
  store i32 0, ptr %14, align 8, !tbaa !10
  %15 = getelementptr inbounds nuw i8, ptr %6, i64 20
  store i32 0, ptr %15, align 4, !tbaa !13
  store i32 16842752, ptr %6, align 8, !tbaa !44
  %16 = getelementptr inbounds nuw i8, ptr %6, i64 8
  store ptr %1, ptr %16, align 8, !tbaa !46
  invoke void @_ZN2cv4cuda6GpuMat6uploadERKNS_11_InputArrayE(ptr noundef nonnull align 8 dereferenceable(64) %0, ptr noundef nonnull align 8 dereferenceable(24) %6)
          to label %17 unwind label %18

17:                                               ; preds = %3
  call void @llvm.lifetime.end.p0(i64 24, ptr nonnull %6) #27
  ret void

18:                                               ; preds = %3
  %19 = landingpad { ptr, i32 }
          cleanup
  call void @llvm.lifetime.end.p0(i64 24, ptr nonnull %6) #27
  invoke void @_ZN2cv4cuda6GpuMat7releaseEv(ptr noundef nonnull align 8 dereferenceable(64) %0)
          to label %_ZN2cv4cuda6GpuMatD2Ev.exit unwind label %20

20:                                               ; preds = %18
  %21 = landingpad { ptr, i32 }
          catch ptr null
  %22 = extractvalue { ptr, i32 } %21, 0
  call void @__clang_call_terminate(ptr %22) #28
  unreachable

_ZN2cv4cuda6GpuMatD2Ev.exit:                      ; preds = %18
  resume { ptr, i32 } %19
}